target datalayout = "e-m:e-p270:32:32-p271:32:32-p272:64:64-i64:64-i128:128-f80:128-n8:16:32:64-S128"
target triple = "x86_64-pc-linux-gnu"

%"class.llvm::StringRef" = type { ptr, i64 }
%"class.llvm::MCAsmInfo" = type <{ ptr, i32, i32, i8, i8, i8, i8, i8, i8, [2 x i8], i32, i32, i8, i8, i8, [5 x i8], ptr, %"class.llvm::StringRef", i8, i8, i8, [5 x i8], ptr, i8, i8, i8, [5 x i8], %"class.llvm::StringRef", %"class.llvm::StringRef", %"class.llvm::StringRef", ptr, ptr, ptr, ptr, ptr, i32, i8, i8, i8, i8, i8, i8, i8, i8, i8, i8, [2 x i8], ptr, i8, [7 x i8], ptr, ptr, ptr, ptr, i32, [4 x i8], ptr, ptr, ptr, ptr, i8, [7 x i8], ptr, ptr, ptr, ptr, ptr, ptr, i8, i8, i8, i8, i32, ptr, i8, i8, [2 x i8], i32, i8, i8, i8, i8, i8, i8, i8, i8, ptr, ptr, i8, i8, [2 x i8], i32, i32, i32, i32, i32, i8, [3 x i8], i32, i8, [3 x i8], i32, i8, i8, i8, i8, i8, i8, i8, i8, i8, [7 x i8], %"class.std::vector", %"struct.std::pair", i8, i8, i8, i8, i32, i8, i8, i8, i8, [4 x i8] }>
%"class.std::vector" = type { %"struct.std::_Vector_base" }
%"struct.std::_Vector_base" = type { %"struct.std::_Vector_base<llvm::MCCFIInstruction, std::allocator<llvm::MCCFIInstruction>>::_Vector_impl" }
%"struct.std::_Vector_base<llvm::MCCFIInstruction, std::allocator<llvm::MCCFIInstruction>>::_Vector_impl" = type { %"struct.std::_Vector_base<llvm::MCCFIInstruction, std::allocator<llvm::MCCFIInstruction>>::_Vector_impl_data" }
%"struct.std::_Vector_base<llvm::MCCFIInstruction, std::allocator<llvm::MCCFIInstruction>>::_Vector_impl_data" = type { ptr, ptr, ptr }
%"struct.std::pair" = type { i32, i32 }

@.str.3 = private unnamed_addr constant [2 x i8] c"l\00", align 1
@.str.4 = private unnamed_addr constant [17 x i8] c" InlineAsm Start\00", align 1
@.str.5 = private unnamed_addr constant [15 x i8] c" InlineAsm End\00", align 1
@.str.6 = private unnamed_addr constant [18 x i8] c"\09.weak_reference \00", align 1
@.str.7 = private unnamed_addr constant [9 x i8] c"\09.space\09\00", align 1

; Function Attrs: mustprogress nounwind uwtable
define linkonce_odr hidden noundef i64 @_ZNSt11char_traitsIcE6lengthEPKc(ptr noundef %0) #0 comdat align 2 {
  %2 = alloca ptr, align 8
  store ptr %0, ptr %2, align 8
  %3 = load ptr, ptr %2, align 8
  %4 = call i64 @strlen(ptr noundef %3) #7
  ret i64 %4
}

; Function Attrs: mustprogress nounwind uwtable
define linkonce_odr hidden void @_ZN4llvm9StringRefC2EPKc(ptr noundef nonnull align 8 dereferenceable(16) %0, ptr noundef %1) unnamed_addr #0 comdat align 2 {
  %3 = alloca ptr, align 8
  %4 = alloca ptr, align 8
  store ptr %0, ptr %3, align 8
  store ptr %1, ptr %4, align 8
  %5 = load ptr, ptr %3, align 8
  %6 = getelementptr inbounds nuw %"class.llvm::StringRef", ptr %5, i32 0, i32 0
  %7 = load ptr, ptr %4, align 8
  store ptr %7, ptr %6, align 8
  %8 = getelementptr inbounds nuw %"class.llvm::StringRef", ptr %5, i32 0, i32 1
  %9 = load ptr, ptr %4, align 8
  %10 = icmp ne ptr %9, null
  br i1 %10, label %11, label %14

11:                                               ; preds = %2
  %12 = load ptr, ptr %4, align 8
  %13 = call noundef i64 @_ZNSt11char_traitsIcE6lengthEPKc(ptr noundef %12)
  br label %15

14:                                               ; preds = %2
  br label %15

15:                                               ; preds = %14, %11
  %16 = phi i64 [ %13, %11 ], [ 0, %14 ]
  store i64 %16, ptr %8, align 8
  ret void
}

; Function Attrs: mustprogress nounwind uwtable
define dso_local void @_ZN4llvm15MCAsmInfoDarwinC2Ev(ptr noundef nonnull align 8 dereferenceable(484) %0) unnamed_addr #0 align 2 {
  %2 = alloca ptr, align 8
  %3 = alloca %"class.llvm::StringRef", align 8
  store ptr %0, ptr %2, align 8
  %4 = load ptr, ptr %2, align 8
  call void @_ZN4llvm9MCAsmInfoC2Ev(ptr noundef nonnull align 8 dereferenceable(484) %4)
  store ptr getelementptr inbounds inrange(-16, 96) ({ [14 x ptr] }, ptr @_ZTVN4llvm15MCAsmInfoDarwinE, i32 0, i32 0, i32 2), ptr %4, align 8
  call void @_ZN4llvm9StringRefC2EPKc(ptr noundef nonnull align 8 dereferenceable(16) %3, ptr noundef @.str.3)
  %5 = getelementptr inbounds nuw %"class.llvm::MCAsmInfo", ptr %4, i32 0, i32 29
  call void @llvm.memcpy.p0.p0.i64(ptr align 8 %5, ptr align 8 %3, i64 16, i1 false)
  %6 = getelementptr inbounds nuw %"class.llvm::MCAsmInfo", ptr %4, i32 0, i32 82
  store i8 0, ptr %6, align 4
  %7 = getelementptr inbounds nuw %"class.llvm::MCAsmInfo", ptr %4, i32 0, i32 5
  store i8 1, ptr %7, align 2
  %8 = getelementptr inbounds nuw %"class.llvm::MCAsmInfo", ptr %4, i32 0, i32 71
  store i8 0, ptr %8, align 1
  %9 = getelementptr inbounds nuw %"class.llvm::MCAsmInfo", ptr %4, i32 0, i32 75
  store i8 0, ptr %9, align 1
  %10 = getelementptr inbounds nuw %"class.llvm::MCAsmInfo", ptr %4, i32 0, i32 77
  store i32 2, ptr %10, align 4
  %11 = getelementptr inbounds nuw %"class.llvm::MCAsmInfo", ptr %4, i32 0, i32 30
  store ptr @.str.4, ptr %11, align 8
  %12 = getelementptr inbounds nuw %"class.llvm::MCAsmInfo", ptr %4, i32 0, i32 31
  store ptr @.str.5, ptr %12, align 8
  %13 = getelementptr inbounds nuw %"class.llvm::MCAsmInfo", ptr %4, i32 0, i32 88
  store i8 1, ptr %13, align 8
  %14 = getelementptr inbounds nuw %"class.llvm::MCAsmInfo", ptr %4, i32 0, i32 87
  store ptr @.str.6, ptr %14, align 8
  %15 = getelementptr inbounds nuw %"class.llvm::MCAsmInfo", ptr %4, i32 0, i32 47
  store ptr @.str.7, ptr %15, align 8
  %16 = getelementptr inbounds nuw %"class.llvm::MCAsmInfo", ptr %4, i32 0, i32 91
  store i32 21, ptr %16, align 4
  %17 = getelementptr inbounds nuw %"class.llvm::MCAsmInfo", ptr %4, i32 0, i32 93
  store i32 0, ptr %17, align 4
  %18 = getelementptr inbounds nuw %"class.llvm::MCAsmInfo", ptr %4, i32 0, i32 94
  store i32 0, ptr %18, align 8
  %19 = getelementptr inbounds nuw %"class.llvm::MCAsmInfo", ptr %4, i32 0, i32 81
  store i8 0, ptr %19, align 1
  %20 = getelementptr inbounds nuw %"class.llvm::MCAsmInfo", ptr %4, i32 0, i32 85
  store i8 1, ptr %20, align 1
  %21 = getelementptr inbounds nuw %"class.llvm::MCAsmInfo", ptr %4, i32 0, i32 102
  store i8 0, ptr %21, align 8
  %22 = getelementptr inbounds nuw %"class.llvm::MCAsmInfo", ptr %4, i32 0, i32 74
  store i8 1, ptr %22, align 8
  ret void
}