; Function Attrs: mustprogress nounwind uwtable
define dso_local void @_ZN4llvm15MCAsmInfoDarwinC2Ev(ptr noundef nonnull align 8 dereferenceable(484) %0) unnamed_addr #1 align 2 {
  tail call void @_ZN4llvm9MCAsmInfoC2Ev(ptr noundef nonnull align 8 dereferenceable(484) %0) #7
  store ptr getelementptr inbounds nuw inrange(-16, 96) (i8, ptr @_ZTVN4llvm15MCAsmInfoDarwinE, i64 16), ptr %0, align 8
  %2 = getelementptr inbounds nuw i8, ptr %0, i64 120
  store ptr @.str.3, ptr %2, align 8
  %.sroa.2.0..sroa_idx = getelementptr inbounds nuw i8, ptr %0, i64 128
  store i64 1, ptr %.sroa.2.0..sroa_idx, align 8
  %3 = getelementptr inbounds nuw i8, ptr %0, i64 364
  store i8 0, ptr %3, align 4
  %4 = getelementptr inbounds nuw i8, ptr %0, i64 18
  store i8 1, ptr %4, align 2
  %5 = getelementptr inbounds nuw i8, ptr %0, i64 339
  store i8 0, ptr %5, align 1
  %6 = getelementptr inbounds nuw i8, ptr %0, i64 353
  store i8 0, ptr %6, align 1
  %7 = getelementptr inbounds nuw i8, ptr %0, i64 356
  store i32 2, ptr %7, align 4
  %8 = getelementptr inbounds nuw i8, ptr %0, i64 136
  store ptr @.str.4, ptr %8, align 8
  %9 = getelementptr inbounds nuw i8, ptr %0, i64 144
  store ptr @.str.5, ptr %9, align 8
  %10 = getelementptr inbounds nuw i8, ptr %0, i64 384
  store i8 1, ptr %10, align 8
  %11 = getelementptr inbounds nuw i8, ptr %0, i64 376
  store ptr @.str.6, ptr %11, align 8
  %12 = getelementptr inbounds nuw i8, ptr %0, i64 192
  store ptr @.str.7, ptr %12, align 8
  %13 = getelementptr inbounds nuw i8, ptr %0, i64 388
  store i32 21, ptr %13, align 4
  %14 = getelementptr inbounds nuw i8, ptr %0, i64 396
  store i32 0, ptr %14, align 4
  %15 = getelementptr inbounds nuw i8, ptr %0, i64 400
  store i32 0, ptr %15, align 8
  %16 = getelementptr inbounds nuw i8, ptr %0, i64 363
  store i8 0, ptr %16, align 1
  %17 = getelementptr inbounds nuw i8, ptr %0, i64 367
  store i8 1, ptr %17, align 1
  %18 = getelementptr inbounds nuw i8, ptr %0, i64 424
  store i8 0, ptr %18, align 8
  %19 = getelementptr inbounds nuw i8, ptr %0, i64 352
  store i8 1, ptr %19, align 8
  ret void
}